; Function Attrs: null_pointer_is_valid sspstrong uwtable
define internal noundef zeroext i16 @de_bcc_state_attr(ptr noundef %0, ptr noundef %1, ptr readnone captures(none) %2, i32 noundef %3, i32 %4, ptr readnone captures(none) %5, i32 %6) #1 {
  %8 = load i32, ptr @hf_gsm_a_dtap_bcc_state_attr, align 4
  %9 = tail call ptr @proto_tree_add_item(ptr noundef %1, i32 noundef %8, ptr noundef %0, i32 noundef %3, i32 noundef 1, i32 noundef 0)
  %10 = load i32, ptr @hf_gsm_a_dtap_bcc_state_attr_da, align 4
  %11 = tail call ptr @proto_tree_add_item(ptr noundef %1, i32 noundef %10, ptr noundef %0, i32 noundef %3, i32 noundef 1, i32 noundef 0)
  %12 = load i32, ptr @hf_gsm_a_dtap_bcc_state_attr_ua, align 4
  %13 = tail call ptr @proto_tree_add_item(ptr noundef %1, i32 noundef %12, ptr noundef %0, i32 noundef %3, i32 noundef 1, i32 noundef 0)
  %14 = load i32, ptr @hf_gsm_a_dtap_bcc_state_attr_comm, align 4
  %15 = tail call ptr @proto_tree_add_item(ptr noundef %1, i32 noundef %14, ptr noundef %0, i32 noundef %3, i32 noundef 1, i32 noundef 0)
  %16 = load i32, ptr @hf_gsm_a_dtap_bcc_state_attr_oi, align 4
  %17 = tail call ptr @proto_tree_add_item(ptr noundef %1, i32 noundef %16, ptr noundef %0, i32 noundef %3, i32 noundef 1, i32 noundef 0)
  ret i16 1
}